target datalayout = "e-m:e-p270:32:32-p271:32:32-p272:64:64-i64:64-i128:128-f80:128-n8:16:32:64-S128"
target triple = "x86_64-pc-linux-gnu"

%"class.icu_77::UObject" = type { ptr }
%"class.icu_77::Calendar" = type <{ %"class.icu_77::UObject", [24 x i32], [24 x i8], i8, [7 x i8], double, ptr, i8, i16, i8, i32, i32, i32, i8, i8, i16, [4 x i8], ptr, ptr }>

; Function Attrs: inlinehint mustprogress nounwind uwtable
define internal noundef signext i8 @_ZL9U_FAILURE10UErrorCode(i32 noundef %0) #2 {
  %2 = alloca i32, align 4
  store i32 %0, ptr %2, align 4, !tbaa !15
  %3 = load i32, ptr %2, align 4, !tbaa !15
  %4 = icmp sgt i32 %3, 0
  %5 = zext i1 %4 to i8
  ret i8 %5
}

; Function Attrs: mustprogress uwtable
define void @_ZN6icu_778Calendar13validateFieldE19UCalendarDateFieldsiiR10UErrorCode(ptr noundef nonnull align 8 dereferenceable(192) %0, i32 noundef %1, i32 noundef %2, i32 noundef %3, ptr noundef nonnull align 4 dereferenceable(4) %4) #1 align 2 {
  %6 = alloca ptr, align 8
  %7 = alloca i32, align 4
  %8 = alloca i32, align 4
  %9 = alloca i32, align 4
  %10 = alloca ptr, align 8
  %11 = alloca i32, align 4
  %12 = alloca i32, align 4
  store ptr %0, ptr %6, align 8, !tbaa !37
  store i32 %1, ptr %7, align 4, !tbaa !106
  store i32 %2, ptr %8, align 4, !tbaa !14
  store i32 %3, ptr %9, align 4, !tbaa !14
  store ptr %4, ptr %10, align 8, !tbaa !22
  %13 = load ptr, ptr %6, align 8
  %14 = load ptr, ptr %10, align 8, !tbaa !22
  %15 = load i32, ptr %14, align 4, !tbaa !15
  %16 = call noundef signext i8 @_ZL9U_FAILURE10UErrorCode(i32 noundef %15)
  %17 = icmp ne i8 %16, 0
  br i1 %17, label %18, label %19

18:                                               ; preds = %5
  br label %45

19:                                               ; preds = %5
  %20 = load i32, ptr %7, align 4, !tbaa !106
  %21 = icmp slt i32 %20, 0
  br i1 %21, label %25, label %22

22:                                               ; preds = %19
  %23 = load i32, ptr %7, align 4, !tbaa !106
  %24 = icmp sge i32 %23, 24
  br i1 %24, label %25, label %27

25:                                               ; preds = %22, %19
  %26 = load ptr, ptr %10, align 8, !tbaa !22
  store i32 1, ptr %26, align 4, !tbaa !15
  br label %45

27:                                               ; preds = %22
  call void @llvm.lifetime.start.p0(i64 4, ptr %11) #16
  %28 = getelementptr inbounds nuw %"class.icu_77::Calendar", ptr %13, i32 0, i32 1
  %29 = load i32, ptr %7, align 4, !tbaa !106
  %30 = zext i32 %29 to i64
  %31 = getelementptr inbounds nuw [24 x i32], ptr %28, i64 0, i64 %30
  %32 = load i32, ptr %31, align 4, !tbaa !14
  store i32 %32, ptr %11, align 4, !tbaa !14
  %33 = load i32, ptr %11, align 4, !tbaa !14
  %34 = load i32, ptr %8, align 4, !tbaa !14
  %35 = icmp slt i32 %33, %34
  br i1 %35, label %40, label %36

36:                                               ; preds = %27
  %37 = load i32, ptr %11, align 4, !tbaa !14
  %38 = load i32, ptr %9, align 4, !tbaa !14
  %39 = icmp sgt i32 %37, %38
  br i1 %39, label %40, label %42

40:                                               ; preds = %36, %27
  %41 = load ptr, ptr %10, align 8, !tbaa !22
  store i32 1, ptr %41, align 4, !tbaa !15
  store i32 1, ptr %12, align 4
  br label %43

42:                                               ; preds = %36
  store i32 0, ptr %12, align 4
  br label %43

43:                                               ; preds = %42, %40
  call void @llvm.lifetime.end.p0(i64 4, ptr %11) #16
  %44 = load i32, ptr %12, align 4
  switch i32 %44, label %46 [
    i32 0, label %45
    i32 1, label %45
  ]

45:                                               ; preds = %18, %25, %43, %43
  ret void

46:                                               ; preds = %43
  unreachable
}