; Function Attrs: mustprogress nofree norecurse nosync nounwind willreturn memory(argmem: readwrite) uwtable
define void @_ZN6icu_778Calendar13validateFieldE19UCalendarDateFieldsiiR10UErrorCode(ptr noundef nonnull readonly align 8 captures(none) dereferenceable(192) %0, i32 noundef %1, i32 noundef %2, i32 noundef %3, ptr noundef nonnull align 4 captures(none) dereferenceable(4) %4) local_unnamed_addr #12 align 2 {
  %6 = load i32, ptr %4, align 4, !tbaa !13
  %7 = icmp slt i32 %6, 1
  br i1 %7, label %8, label %16

8:                                                ; preds = %5
  %or.cond = icmp ugt i32 %1, 23
  br i1 %or.cond, label %.sink.split, label %9

9:                                                ; preds = %8
  %10 = getelementptr inbounds nuw i8, ptr %0, i64 8
  %11 = zext nneg i32 %1 to i64
  %12 = getelementptr inbounds nuw [24 x i32], ptr %10, i64 0, i64 %11
  %13 = load i32, ptr %12, align 4, !tbaa !12
  %14 = icmp slt i32 %13, %2
  %15 = icmp sgt i32 %13, %3
  %or.cond12 = or i1 %14, %15
  br i1 %or.cond12, label %.sink.split, label %16

.sink.split:                                      ; preds = %9, %8
  store i32 1, ptr %4, align 4, !tbaa !13
  br label %16

16:                                               ; preds = %.sink.split, %9, %5
  ret void
}